target datalayout = "e-m:e-p270:32:32-p271:32:32-p272:64:64-i64:64-i128:128-f80:128-n8:16:32:64-S128"
target triple = "x86_64-pc-linux-gnu"

%"class.Ipopt::StdInterfaceTNLP" = type { %"class.Ipopt::TNLP.base", %"class.Ipopt::SmartPtr", i32, i32, ptr, ptr, ptr, ptr, i32, i32, i32, ptr, ptr, ptr, ptr, ptr, ptr, ptr, ptr, ptr, ptr, ptr, double, ptr, ptr, ptr, ptr, ptr, ptr, ptr, ptr, ptr, ptr, ptr }
%"class.Ipopt::TNLP.base" = type { %"class.Ipopt::ReferencedObject.base" }
%"class.Ipopt::ReferencedObject.base" = type <{ ptr, i32 }>
%"class.Ipopt::SmartPtr" = type { ptr }

; Function Attrs: mustprogress uwtable
define void @_ZN5Ipopt16StdInterfaceTNLP17finalize_solutionENS_12SolverReturnEiPKdS3_S3_iS3_S3_dPKNS_9IpoptDataEPNS_25IpoptCalculatedQuantitiesE(ptr noundef nonnull align 8 dereferenceable(264) %0, i32 noundef %1, i32 noundef %2, ptr noundef %3, ptr noundef %4, ptr noundef %5, i32 noundef %6, ptr noundef %7, ptr noundef %8, double noundef %9, ptr noundef %10, ptr noundef %11) unnamed_addr #0 align 2 {
  %13 = alloca ptr, align 8
  %14 = alloca i32, align 4
  %15 = alloca i32, align 4
  %16 = alloca ptr, align 8
  %17 = alloca ptr, align 8
  %18 = alloca ptr, align 8
  %19 = alloca i32, align 4
  %20 = alloca ptr, align 8
  %21 = alloca ptr, align 8
  %22 = alloca double, align 8
  %23 = alloca ptr, align 8
  %24 = alloca ptr, align 8
  store ptr %0, ptr %13, align 8
  store i32 %1, ptr %14, align 4
  store i32 %2, ptr %15, align 4
  store ptr %3, ptr %16, align 8
  store ptr %4, ptr %17, align 8
  store ptr %5, ptr %18, align 8
  store i32 %6, ptr %19, align 4
  store ptr %7, ptr %20, align 8
  store ptr %8, ptr %21, align 8
  store double %9, ptr %22, align 8
  store ptr %10, ptr %23, align 8
  store ptr %11, ptr %24, align 8
  %25 = load ptr, ptr %13, align 8
  %26 = getelementptr inbounds %"class.Ipopt::StdInterfaceTNLP", ptr %25, i32 0, i32 26
  %27 = load ptr, ptr %26, align 8
  %28 = icmp ne ptr %27, null
  br i1 %28, label %29, label %34

29:                                               ; preds = %12
  %30 = load i32, ptr %15, align 4
  %31 = load ptr, ptr %16, align 8
  %32 = getelementptr inbounds %"class.Ipopt::StdInterfaceTNLP", ptr %25, i32 0, i32 26
  %33 = load ptr, ptr %32, align 8
  call void @_ZN5Ipopt10IpBlasCopyEiPKdiPdi(i32 noundef %30, ptr noundef %31, i32 noundef 1, ptr noundef %33, i32 noundef 1)
  br label %34

34:                                               ; preds = %29, %12
  %35 = getelementptr inbounds %"class.Ipopt::StdInterfaceTNLP", ptr %25, i32 0, i32 27
  %36 = load ptr, ptr %35, align 8
  %37 = icmp ne ptr %36, null
  br i1 %37, label %38, label %43

38:                                               ; preds = %34
  %39 = load i32, ptr %15, align 4
  %40 = load ptr, ptr %17, align 8
  %41 = getelementptr inbounds %"class.Ipopt::StdInterfaceTNLP", ptr %25, i32 0, i32 27
  %42 = load ptr, ptr %41, align 8
  call void @_ZN5Ipopt10IpBlasCopyEiPKdiPdi(i32 noundef %39, ptr noundef %40, i32 noundef 1, ptr noundef %42, i32 noundef 1)
  br label %43

43:                                               ; preds = %38, %34
  %44 = getelementptr inbounds %"class.Ipopt::StdInterfaceTNLP", ptr %25, i32 0, i32 28
  %45 = load ptr, ptr %44, align 8
  %46 = icmp ne ptr %45, null
  br i1 %46, label %47, label %52

47:                                               ; preds = %43
  %48 = load i32, ptr %15, align 4
  %49 = load ptr, ptr %18, align 8
  %50 = getelementptr inbounds %"class.Ipopt::StdInterfaceTNLP", ptr %25, i32 0, i32 28
  %51 = load ptr, ptr %50, align 8
  call void @_ZN5Ipopt10IpBlasCopyEiPKdiPdi(i32 noundef %48, ptr noundef %49, i32 noundef 1, ptr noundef %51, i32 noundef 1)
  br label %52

52:                                               ; preds = %47, %43
  %53 = getelementptr inbounds %"class.Ipopt::StdInterfaceTNLP", ptr %25, i32 0, i32 29
  %54 = load ptr, ptr %53, align 8
  %55 = icmp ne ptr %54, null
  br i1 %55, label %56, label %61

56:                                               ; preds = %52
  %57 = load i32, ptr %19, align 4
  %58 = load ptr, ptr %20, align 8
  %59 = getelementptr inbounds %"class.Ipopt::StdInterfaceTNLP", ptr %25, i32 0, i32 29
  %60 = load ptr, ptr %59, align 8
  call void @_ZN5Ipopt10IpBlasCopyEiPKdiPdi(i32 noundef %57, ptr noundef %58, i32 noundef 1, ptr noundef %60, i32 noundef 1)
  br label %61

61:                                               ; preds = %56, %52
  %62 = getelementptr inbounds %"class.Ipopt::StdInterfaceTNLP", ptr %25, i32 0, i32 30
  %63 = load ptr, ptr %62, align 8
  %64 = icmp ne ptr %63, null
  br i1 %64, label %65, label %70

65:                                               ; preds = %61
  %66 = load i32, ptr %19, align 4
  %67 = load ptr, ptr %21, align 8
  %68 = getelementptr inbounds %"class.Ipopt::StdInterfaceTNLP", ptr %25, i32 0, i32 30
  %69 = load ptr, ptr %68, align 8
  call void @_ZN5Ipopt10IpBlasCopyEiPKdiPdi(i32 noundef %66, ptr noundef %67, i32 noundef 1, ptr noundef %69, i32 noundef 1)
  br label %70

70:                                               ; preds = %65, %61
  %71 = getelementptr inbounds %"class.Ipopt::StdInterfaceTNLP", ptr %25, i32 0, i32 31
  %72 = load ptr, ptr %71, align 8
  %73 = icmp ne ptr %72, null
  br i1 %73, label %74, label %78

74:                                               ; preds = %70
  %75 = load double, ptr %22, align 8
  %76 = getelementptr inbounds %"class.Ipopt::StdInterfaceTNLP", ptr %25, i32 0, i32 31
  %77 = load ptr, ptr %76, align 8
  store double %75, ptr %77, align 8
  br label %78

78:                                               ; preds = %74, %70
  ret void
}