; Function Attrs: mustprogress uwtable
define void @_ZN5Ipopt16StdInterfaceTNLP17finalize_solutionENS_12SolverReturnEiPKdS3_S3_iS3_S3_dPKNS_9IpoptDataEPNS_25IpoptCalculatedQuantitiesE(ptr nocapture noundef nonnull readonly align 8 dereferenceable(264) %0, i32 %1, i32 noundef %2, ptr noundef %3, ptr noundef %4, ptr noundef %5, i32 noundef %6, ptr noundef %7, ptr noundef %8, double noundef %9, ptr nocapture readnone %10, ptr nocapture readnone %11) unnamed_addr #0 align 2 {
  %13 = getelementptr inbounds i8, ptr %0, i64 200
  %14 = load ptr, ptr %13, align 8
  %.not = icmp eq ptr %14, null
  br i1 %.not, label %16, label %15

15:                                               ; preds = %12
  tail call void @_ZN5Ipopt10IpBlasCopyEiPKdiPdi(i32 noundef %2, ptr noundef %3, i32 noundef 1, ptr noundef nonnull %14, i32 noundef 1)
  br label %16

16:                                               ; preds = %15, %12
  %17 = getelementptr inbounds i8, ptr %0, i64 208
  %18 = load ptr, ptr %17, align 8
  %.not16 = icmp eq ptr %18, null
  br i1 %.not16, label %20, label %19

19:                                               ; preds = %16
  tail call void @_ZN5Ipopt10IpBlasCopyEiPKdiPdi(i32 noundef %2, ptr noundef %4, i32 noundef 1, ptr noundef nonnull %18, i32 noundef 1)
  br label %20

20:                                               ; preds = %19, %16
  %21 = getelementptr inbounds i8, ptr %0, i64 216
  %22 = load ptr, ptr %21, align 8
  %.not17 = icmp eq ptr %22, null
  br i1 %.not17, label %24, label %23

23:                                               ; preds = %20
  tail call void @_ZN5Ipopt10IpBlasCopyEiPKdiPdi(i32 noundef %2, ptr noundef %5, i32 noundef 1, ptr noundef nonnull %22, i32 noundef 1)
  br label %24

24:                                               ; preds = %23, %20
  %25 = getelementptr inbounds i8, ptr %0, i64 224
  %26 = load ptr, ptr %25, align 8
  %.not18 = icmp eq ptr %26, null
  br i1 %.not18, label %28, label %27

27:                                               ; preds = %24
  tail call void @_ZN5Ipopt10IpBlasCopyEiPKdiPdi(i32 noundef %6, ptr noundef %7, i32 noundef 1, ptr noundef nonnull %26, i32 noundef 1)
  br label %28

28:                                               ; preds = %27, %24
  %29 = getelementptr inbounds i8, ptr %0, i64 232
  %30 = load ptr, ptr %29, align 8
  %.not19 = icmp eq ptr %30, null
  br i1 %.not19, label %32, label %31

31:                                               ; preds = %28
  tail call void @_ZN5Ipopt10IpBlasCopyEiPKdiPdi(i32 noundef %6, ptr noundef %8, i32 noundef 1, ptr noundef nonnull %30, i32 noundef 1)
  br label %32

32:                                               ; preds = %31, %28
  %33 = getelementptr inbounds i8, ptr %0, i64 240
  %34 = load ptr, ptr %33, align 8
  %.not20 = icmp eq ptr %34, null
  br i1 %.not20, label %36, label %35

35:                                               ; preds = %32
  store double %9, ptr %34, align 8
  br label %36

36:                                               ; preds = %35, %32
  ret void
}